; Function Attrs: mustprogress nounwind uwtable
define internal void @_ZN5clang4ento5check7PreStmtINS_10ReturnStmtEE10_checkStmtIN12_GLOBAL__N_119ObjCSelfInitCheckerEEEvPvPKNS_4StmtERNS0_14CheckerContextE(ptr noundef %0, ptr noundef readonly captures(none) %1, ptr noundef nonnull align 8 dereferenceable(81) %2) #0 align 2 {
  %4 = getelementptr inbounds nuw i8, ptr %2, i64 8
  %5 = load ptr, ptr %4, align 8
  %.sroa.1.0..sroa_idx.i.i.i = getelementptr inbounds nuw i8, ptr %5, i64 24
  %.sroa.1.0.copyload.i.i.i = load i64, ptr %.sroa.1.0..sroa_idx.i.i.i, align 8
  %6 = and i64 %.sroa.1.0.copyload.i.i.i, -8
  %7 = inttoptr i64 %6 to ptr
  %8 = getelementptr inbounds nuw i8, ptr %7, i64 24
  %9 = load ptr, ptr %8, align 8
  %10 = getelementptr inbounds nuw i8, ptr %9, i64 8
  %11 = load ptr, ptr %10, align 8
  %12 = getelementptr inbounds nuw i8, ptr %11, i64 28
  %13 = load i32, ptr %12, align 4
  %14 = and i32 %13, 127
  %15 = add nsw i32 %14, -15
  %16 = icmp ult i32 %15, 63
  %spec.select.i.i.i = select i1 %16, ptr %11, ptr null
  %17 = tail call fastcc noundef zeroext i1 @_ZL27shouldRunOnFunctionOrMethodPKN5clang9NamedDeclE(ptr noundef %spec.select.i.i.i)
  br i1 %17, label %18, label %_ZNK12_GLOBAL__N_119ObjCSelfInitChecker12checkPreStmtEPKN5clang10ReturnStmtERNS1_4ento14CheckerContextE.exit

18:                                               ; preds = %3
  %19 = getelementptr inbounds nuw i8, ptr %1, i64 8
  %20 = load ptr, ptr %19, align 8
  tail call fastcc void @_ZNK12_GLOBAL__N_119ObjCSelfInitChecker19checkForInvalidSelfEPKN5clang4ExprERNS1_4ento14CheckerContextEPKc(ptr noundef nonnull align 8 dereferenceable(136) %0, ptr noundef %20, ptr noundef nonnull align 8 dereferenceable(81) %2, ptr noundef nonnull @.str.13)
  br label %_ZNK12_GLOBAL__N_119ObjCSelfInitChecker12checkPreStmtEPKN5clang10ReturnStmtERNS1_4ento14CheckerContextE.exit

_ZNK12_GLOBAL__N_119ObjCSelfInitChecker12checkPreStmtEPKN5clang10ReturnStmtERNS1_4ento14CheckerContextE.exit: ; preds = %3, %18
  ret void
}